target datalayout = "e-m:e-p270:32:32-p271:32:32-p272:64:64-i64:64-i128:128-f80:128-n8:16:32:64-S128"
target triple = "x86_64-pc-linux-gnu"

%struct._cmstransform_struct = type { i32, i32, ptr, ptr, ptr, ptr, ptr, %struct._cmsCACHE, ptr, ptr, ptr, ptr, i32, i32, %struct.cmsCIEXYZ, %struct.cmsCIEXYZ, ptr, i32, double, i32, ptr, ptr, ptr, ptr, ptr, i32, i32 }
%struct._cmsCACHE = type { [16 x i16], [16 x i16] }
%struct.cmsCIEXYZ = type { double, double, double }
%struct.cmsStride = type { i32, i32, i32, i32 }

; Function Attrs: nounwind uwtable
define internal void @NullXFORM(ptr noundef %0, ptr noundef %1, ptr noundef %2, i32 noundef %3, i32 noundef %4, ptr noundef %5) #0 {
  %7 = alloca ptr, align 8
  %8 = alloca ptr, align 8
  %9 = alloca ptr, align 8
  %10 = alloca i32, align 4
  %11 = alloca i32, align 4
  %12 = alloca ptr, align 8
  %13 = alloca ptr, align 8
  %14 = alloca ptr, align 8
  %15 = alloca [16 x i16], align 16
  %16 = alloca i32, align 4
  %17 = alloca i32, align 4
  %18 = alloca i32, align 4
  %19 = alloca i32, align 4
  store ptr %0, ptr %7, align 8
  store ptr %1, ptr %8, align 8
  store ptr %2, ptr %9, align 8
  store i32 %3, ptr %10, align 4
  store i32 %4, ptr %11, align 4
  store ptr %5, ptr %12, align 8
  %20 = load ptr, ptr %7, align 8
  %21 = load ptr, ptr %8, align 8
  %22 = load ptr, ptr %9, align 8
  %23 = load i32, ptr %10, align 4
  %24 = load i32, ptr %11, align 4
  %25 = load ptr, ptr %12, align 8
  call void @_cmsHandleExtraChannels(ptr noundef %20, ptr noundef %21, ptr noundef %22, i32 noundef %23, i32 noundef %24, ptr noundef %25)
  store i32 0, ptr %18, align 4
  store i32 0, ptr %19, align 4
  %26 = getelementptr inbounds [16 x i16], ptr %15, i64 0, i64 0
  call void @llvm.memset.p0.i64(ptr align 16 %26, i8 0, i64 32, i1 false)
  store i32 0, ptr %16, align 4
  br label %27

27:                                               ; preds = %79, %6
  %28 = load i32, ptr %16, align 4
  %29 = load i32, ptr %11, align 4
  %30 = icmp ult i32 %28, %29
  br i1 %30, label %31, label %82

31:                                               ; preds = %27
  %32 = load ptr, ptr %8, align 8
  %33 = load i32, ptr %18, align 4
  %34 = zext i32 %33 to i64
  %35 = getelementptr inbounds i8, ptr %32, i64 %34
  store ptr %35, ptr %13, align 8
  %36 = load ptr, ptr %9, align 8
  %37 = load i32, ptr %19, align 4
  %38 = zext i32 %37 to i64
  %39 = getelementptr inbounds i8, ptr %36, i64 %38
  store ptr %39, ptr %14, align 8
  store i32 0, ptr %17, align 4
  br label %40

40:                                               ; preds = %65, %31
  %41 = load i32, ptr %17, align 4
  %42 = load i32, ptr %10, align 4
  %43 = icmp ult i32 %41, %42
  br i1 %43, label %44, label %68

44:                                               ; preds = %40
  %45 = load ptr, ptr %7, align 8
  %46 = getelementptr inbounds %struct._cmstransform_struct, ptr %45, i32 0, i32 3
  %47 = load ptr, ptr %46, align 8
  %48 = load ptr, ptr %7, align 8
  %49 = getelementptr inbounds [16 x i16], ptr %15, i64 0, i64 0
  %50 = load ptr, ptr %13, align 8
  %51 = load ptr, ptr %12, align 8
  %52 = getelementptr inbounds %struct.cmsStride, ptr %51, i32 0, i32 2
  %53 = load i32, ptr %52, align 4
  %54 = call ptr %47(ptr noundef %48, ptr noundef %49, ptr noundef %50, i32 noundef %53)
  store ptr %54, ptr %13, align 8
  %55 = load ptr, ptr %7, align 8
  %56 = getelementptr inbounds %struct._cmstransform_struct, ptr %55, i32 0, i32 4
  %57 = load ptr, ptr %56, align 8
  %58 = load ptr, ptr %7, align 8
  %59 = getelementptr inbounds [16 x i16], ptr %15, i64 0, i64 0
  %60 = load ptr, ptr %14, align 8
  %61 = load ptr, ptr %12, align 8
  %62 = getelementptr inbounds %struct.cmsStride, ptr %61, i32 0, i32 3
  %63 = load i32, ptr %62, align 4
  %64 = call ptr %57(ptr noundef %58, ptr noundef %59, ptr noundef %60, i32 noundef %63)
  store ptr %64, ptr %14, align 8
  br label %65

65:                                               ; preds = %44
  %66 = load i32, ptr %17, align 4
  %67 = add i32 %66, 1
  store i32 %67, ptr %17, align 4
  br label %40, !llvm.loop !18

68:                                               ; preds = %40
  %69 = load ptr, ptr %12, align 8
  %70 = getelementptr inbounds %struct.cmsStride, ptr %69, i32 0, i32 0
  %71 = load i32, ptr %70, align 4
  %72 = load i32, ptr %18, align 4
  %73 = add i32 %72, %71
  store i32 %73, ptr %18, align 4
  %74 = load ptr, ptr %12, align 8
  %75 = getelementptr inbounds %struct.cmsStride, ptr %74, i32 0, i32 1
  %76 = load i32, ptr %75, align 4
  %77 = load i32, ptr %19, align 4
  %78 = add i32 %77, %76
  store i32 %78, ptr %19, align 4
  br label %79

79:                                               ; preds = %68
  %80 = load i32, ptr %16, align 4
  %81 = add i32 %80, 1
  store i32 %81, ptr %16, align 4
  br label %27, !llvm.loop !19

82:                                               ; preds = %27
  ret void
}