; Function Attrs: nounwind uwtable
define internal void @NullXFORM(ptr noundef %0, ptr noundef %1, ptr noundef %2, i32 noundef %3, i32 noundef %4, ptr noundef %5) #0 {
  %7 = alloca [16 x i16], align 16
  tail call void @_cmsHandleExtraChannels(ptr noundef %0, ptr noundef %1, ptr noundef %2, i32 noundef %3, i32 noundef %4, ptr noundef %5) #11
  call void @llvm.memset.p0.i64(ptr noundef nonnull align 16 dereferenceable(32) %7, i8 0, i64 32, i1 false)
  %.not = icmp eq i32 %4, 0
  br i1 %.not, label %._crit_edge40, label %.lr.ph39

.lr.ph39:                                         ; preds = %6
  %.not41 = icmp eq i32 %3, 0
  %8 = getelementptr inbounds i8, ptr %0, i64 16
  %9 = getelementptr inbounds i8, ptr %5, i64 8
  %10 = getelementptr inbounds i8, ptr %0, i64 24
  %11 = getelementptr inbounds i8, ptr %5, i64 12
  %12 = getelementptr inbounds i8, ptr %5, i64 4
  br i1 %.not41, label %._crit_edge40, label %.lr.ph.us

.lr.ph.us:                                        ; preds = %.lr.ph39, %._crit_edge.us
  %.037.us = phi i32 [ %28, %._crit_edge.us ], [ 0, %.lr.ph39 ]
  %.02736.us = phi i32 [ %26, %._crit_edge.us ], [ 0, %.lr.ph39 ]
  %.02935.us = phi i32 [ %29, %._crit_edge.us ], [ 0, %.lr.ph39 ]
  %13 = zext i32 %.02736.us to i64
  %14 = getelementptr inbounds i8, ptr %1, i64 %13
  %15 = zext i32 %.037.us to i64
  %16 = getelementptr inbounds i8, ptr %2, i64 %15
  br label %17

17:                                               ; preds = %.lr.ph.us, %17
  %.02834.us = phi i32 [ 0, %.lr.ph.us ], [ %24, %17 ]
  %.03033.us = phi ptr [ %16, %.lr.ph.us ], [ %23, %17 ]
  %.03132.us = phi ptr [ %14, %.lr.ph.us ], [ %20, %17 ]
  %18 = load ptr, ptr %8, align 8
  %19 = load i32, ptr %9, align 4
  %20 = call ptr %18(ptr noundef %0, ptr noundef nonnull %7, ptr noundef %.03132.us, i32 noundef %19) #11
  %21 = load ptr, ptr %10, align 8
  %22 = load i32, ptr %11, align 4
  %23 = call ptr %21(ptr noundef %0, ptr noundef nonnull %7, ptr noundef %.03033.us, i32 noundef %22) #11
  %24 = add nuw i32 %.02834.us, 1
  %exitcond.not = icmp eq i32 %24, %3
  br i1 %exitcond.not, label %._crit_edge.us, label %17, !llvm.loop !19

._crit_edge.us:                                   ; preds = %17
  %25 = load i32, ptr %5, align 4
  %26 = add i32 %25, %.02736.us
  %27 = load i32, ptr %12, align 4
  %28 = add i32 %27, %.037.us
  %29 = add nuw i32 %.02935.us, 1
  %exitcond43.not = icmp eq i32 %29, %4
  br i1 %exitcond43.not, label %._crit_edge40, label %.lr.ph.us, !llvm.loop !20

._crit_edge40:                                    ; preds = %._crit_edge.us, %.lr.ph39, %6
  ret void
}